; Function Attrs: mustprogress uwtable
define hidden void @_ZN4cvc58internal6theory11quantifiers16SygusRepairConstC2ERNS0_3EnvERNS2_27QuantifiersInferenceManagerEPNS2_11TermDbSygusE(ptr noundef nonnull align 8 dereferenceable(160) %0, ptr noundef nonnull align 8 dereferenceable(696) %1, ptr noundef nonnull align 8 dereferenceable(384) %2, ptr noundef %3) unnamed_addr #3 align 2 personality ptr @__gxx_personality_v0 {
  tail call void @_ZN4cvc58internal6EnvObjC2ERNS0_3EnvE(ptr noundef nonnull align 8 dereferenceable(16) %0, ptr noundef nonnull align 8 dereferenceable(696) %1)
  store ptr getelementptr inbounds nuw inrange(-16, 16) (i8, ptr @_ZTVN4cvc58internal6theory11quantifiers16SygusRepairConstE, i64 16), ptr %0, align 8, !tbaa !3
  %5 = getelementptr inbounds nuw i8, ptr %0, i64 16
  store ptr %2, ptr %5, align 8, !tbaa !6
  %6 = getelementptr inbounds nuw i8, ptr %0, i64 24
  store ptr %3, ptr %6, align 8, !tbaa !10
  %7 = load atomic i8, ptr @_ZGVZN4cvc58internal4expr9NodeValue4nullEvE6s_null acquire, align 8
  %8 = icmp eq i8 %7, 0
  br i1 %8, label %9, label %16, !prof !26

9:                                                ; preds = %4
  %10 = tail call i32 @__cxa_guard_acquire(ptr nonnull @_ZGVZN4cvc58internal4expr9NodeValue4nullEvE6s_null) #21
  %.not.i.i = icmp eq i32 %10, 0
  br i1 %.not.i.i, label %16, label %11

11:                                               ; preds = %9
  %12 = invoke noalias noundef nonnull dereferenceable(24) ptr @_Znwm(i64 noundef 24) #22
          to label %13 unwind label %.body

13:                                               ; preds = %11
  store i64 1152920405095219200, ptr %12, align 8
  %14 = getelementptr inbounds nuw i8, ptr %12, i64 8
  tail call void @llvm.memset.p0.i64(ptr noundef nonnull align 8 dereferenceable(16) %14, i8 0, i64 16, i1 false)
  store ptr %12, ptr @_ZZN4cvc58internal4expr9NodeValue4nullEvE6s_null, align 8, !tbaa !27
  tail call void @__cxa_guard_release(ptr nonnull @_ZGVZN4cvc58internal4expr9NodeValue4nullEvE6s_null) #21
  br label %16

.body:                                            ; preds = %11
  %15 = landingpad { ptr, i32 }
          cleanup
  tail call void @__cxa_guard_abort(ptr nonnull @_ZGVZN4cvc58internal4expr9NodeValue4nullEvE6s_null) #21
  resume { ptr, i32 } %15

16:                                               ; preds = %13, %9, %4
  %17 = getelementptr inbounds nuw i8, ptr %0, i64 32
  %18 = load ptr, ptr @_ZZN4cvc58internal4expr9NodeValue4nullEvE6s_null, align 8, !tbaa !27
  store ptr %18, ptr %17, align 8, !tbaa !28
  %19 = getelementptr inbounds nuw i8, ptr %0, i64 40
  store i8 0, ptr %19, align 8, !tbaa !29
  %20 = getelementptr inbounds nuw i8, ptr %0, i64 48
  %21 = getelementptr inbounds nuw i8, ptr %0, i64 96
  store ptr %21, ptr %20, align 8, !tbaa !30
  %22 = getelementptr inbounds nuw i8, ptr %0, i64 56
  store i64 1, ptr %22, align 8, !tbaa !31
  %23 = getelementptr inbounds nuw i8, ptr %0, i64 64
  %24 = getelementptr inbounds nuw i8, ptr %0, i64 80
  tail call void @llvm.memset.p0.i64(ptr noundef nonnull align 8 dereferenceable(16) %23, i8 0, i64 16, i1 false)
  store float 1.000000e+00, ptr %24, align 8, !tbaa !32
  %25 = getelementptr inbounds nuw i8, ptr %0, i64 88
  tail call void @llvm.memset.p0.i64(ptr noundef nonnull align 8 dereferenceable(16) %25, i8 0, i64 16, i1 false)
  %26 = getelementptr inbounds nuw i8, ptr %0, i64 104
  %27 = getelementptr inbounds nuw i8, ptr %0, i64 152
  store ptr %27, ptr %26, align 8, !tbaa !30
  %28 = getelementptr inbounds nuw i8, ptr %0, i64 112
  store i64 1, ptr %28, align 8, !tbaa !31
  %29 = getelementptr inbounds nuw i8, ptr %0, i64 120
  %30 = getelementptr inbounds nuw i8, ptr %0, i64 136
  tail call void @llvm.memset.p0.i64(ptr noundef nonnull align 8 dereferenceable(16) %29, i8 0, i64 16, i1 false)
  store float 1.000000e+00, ptr %30, align 8, !tbaa !32
  %31 = getelementptr inbounds nuw i8, ptr %0, i64 144
  tail call void @llvm.memset.p0.i64(ptr noundef nonnull align 8 dereferenceable(16) %31, i8 0, i64 16, i1 false)
  ret void
}